target datalayout = "e-m:e-p270:32:32-p271:32:32-p272:64:64-i64:64-i128:128-f80:128-n8:16:32:64-S128"
target triple = "x86_64-pc-linux-gnu"

%struct.PBEPARAM_st = type { ptr, ptr }

@PBEPARAM_it.local_it = internal constant { i8, [7 x i8], i64, ptr, i64, ptr, i64, ptr } { i8 1, [7 x i8] zeroinitializer, i64 16, ptr @PBEPARAM_seq_tt, i64 2, ptr null, i64 16, ptr @.str }, align 8
@.str.1 = private unnamed_addr constant [32 x i8] c"../openssl/crypto/asn1/p5_pbe.c\00", align 1
@__func__.PKCS5_pbe_set0_algor_ex = private unnamed_addr constant [24 x i8] c"PKCS5_pbe_set0_algor_ex\00", align 1

; Function Attrs: nounwind uwtable
define void @PBEPARAM_free(ptr noundef %0) #0 {
  %2 = alloca ptr, align 8
  store ptr %0, ptr %2, align 8, !tbaa !12
  %3 = load ptr, ptr %2, align 8, !tbaa !12
  %4 = call ptr @PBEPARAM_it()
  call void @ASN1_item_free(ptr noundef %3, ptr noundef %4)
  ret void
}

; Function Attrs: nounwind uwtable
define ptr @PBEPARAM_it() #0 {
  ret ptr @PBEPARAM_it.local_it
}

; Function Attrs: nounwind uwtable
define ptr @PBEPARAM_new() #0 {
  %1 = call ptr @PBEPARAM_it()
  %2 = call ptr @ASN1_item_new(ptr noundef %1)
  ret ptr %2
}

; Function Attrs: nounwind uwtable
define i32 @PKCS5_pbe_set0_algor_ex(ptr noundef %0, i32 noundef %1, i32 noundef %2, ptr noundef %3, i32 noundef %4, ptr noundef %5) #0 {
  %7 = alloca i32, align 4
  %8 = alloca ptr, align 8
  %9 = alloca i32, align 4
  %10 = alloca i32, align 4
  %11 = alloca ptr, align 8
  %12 = alloca i32, align 4
  %13 = alloca ptr, align 8
  %14 = alloca ptr, align 8
  %15 = alloca ptr, align 8
  %16 = alloca ptr, align 8
  %17 = alloca i32, align 4
  store ptr %0, ptr %8, align 8, !tbaa !14
  store i32 %1, ptr %9, align 4, !tbaa !16
  store i32 %2, ptr %10, align 4, !tbaa !16
  store ptr %3, ptr %11, align 8, !tbaa !18
  store i32 %4, ptr %12, align 4, !tbaa !16
  store ptr %5, ptr %13, align 8, !tbaa !20
  call void @llvm.lifetime.start.p0(i64 8, ptr %14) #4
  store ptr null, ptr %14, align 8, !tbaa !12
  call void @llvm.lifetime.start.p0(i64 8, ptr %15) #4
  store ptr null, ptr %15, align 8, !tbaa !22
  call void @llvm.lifetime.start.p0(i64 8, ptr %16) #4
  store ptr null, ptr %16, align 8, !tbaa !18
  %18 = call ptr @PBEPARAM_new()
  store ptr %18, ptr %14, align 8, !tbaa !12
  %19 = load ptr, ptr %14, align 8, !tbaa !12
  %20 = icmp eq ptr %19, null
  br i1 %20, label %21, label %22

21:                                               ; preds = %6
  call void @ERR_new()
  call void @ERR_set_debug(ptr noundef @.str.1, i32 noundef 39, ptr noundef @__func__.PKCS5_pbe_set0_algor_ex)
  call void (i32, i32, ptr, ...) @ERR_set_error(i32 noundef 13, i32 noundef 524301, ptr noundef null)
  br label %88

22:                                               ; preds = %6
  %23 = load i32, ptr %10, align 4, !tbaa !16
  %24 = icmp sle i32 %23, 0
  br i1 %24, label %25, label %26

25:                                               ; preds = %22
  store i32 2048, ptr %10, align 4, !tbaa !16
  br label %26

26:                                               ; preds = %25, %22
  %27 = load ptr, ptr %14, align 8, !tbaa !12
  %28 = getelementptr inbounds nuw %struct.PBEPARAM_st, ptr %27, i32 0, i32 1
  %29 = load ptr, ptr %28, align 8, !tbaa !24
  %30 = load i32, ptr %10, align 4, !tbaa !16
  %31 = sext i32 %30 to i64
  %32 = call i32 @ASN1_INTEGER_set(ptr noundef %29, i64 noundef %31)
  %33 = icmp ne i32 %32, 0
  br i1 %33, label %35, label %34

34:                                               ; preds = %26
  call void @ERR_new()
  call void @ERR_set_debug(ptr noundef @.str.1, i32 noundef 45, ptr noundef @__func__.PKCS5_pbe_set0_algor_ex)
  call void (i32, i32, ptr, ...) @ERR_set_error(i32 noundef 13, i32 noundef 524301, ptr noundef null)
  br label %88

35:                                               ; preds = %26
  %36 = load i32, ptr %12, align 4, !tbaa !16
  %37 = icmp ne i32 %36, 0
  br i1 %37, label %39, label %38

38:                                               ; preds = %35
  store i32 8, ptr %12, align 4, !tbaa !16
  br label %39

39:                                               ; preds = %38, %35
  %40 = load i32, ptr %12, align 4, !tbaa !16
  %41 = icmp slt i32 %40, 0
  br i1 %41, label %42, label %43

42:                                               ; preds = %39
  br label %88

43:                                               ; preds = %39
  %44 = load i32, ptr %12, align 4, !tbaa !16
  %45 = sext i32 %44 to i64
  %46 = call noalias ptr @CRYPTO_malloc(i64 noundef %45, ptr noundef @.str.1, i32 noundef 53)
  store ptr %46, ptr %16, align 8, !tbaa !18
  %47 = load ptr, ptr %16, align 8, !tbaa !18
  %48 = icmp eq ptr %47, null
  br i1 %48, label %49, label %50

49:                                               ; preds = %43
  br label %88

50:                                               ; preds = %43
  %51 = load ptr, ptr %11, align 8, !tbaa !18
  %52 = icmp ne ptr %51, null
  br i1 %52, label %53, label %58

53:                                               ; preds = %50
  %54 = load ptr, ptr %16, align 8, !tbaa !18
  %55 = load ptr, ptr %11, align 8, !tbaa !18
  %56 = load i32, ptr %12, align 4, !tbaa !16
  %57 = sext i32 %56 to i64
  call void @llvm.memcpy.p0.p0.i64(ptr align 1 %54, ptr align 1 %55, i64 %57, i1 false)
  br label %67

58:                                               ; preds = %50
  %59 = load ptr, ptr %13, align 8, !tbaa !20
  %60 = load ptr, ptr %16, align 8, !tbaa !18
  %61 = load i32, ptr %12, align 4, !tbaa !16
  %62 = sext i32 %61 to i64
  %63 = call i32 @RAND_bytes_ex(ptr noundef %59, ptr noundef %60, i64 noundef %62, i32 noundef 0)
  %64 = icmp sle i32 %63, 0
  br i1 %64, label %65, label %66

65:                                               ; preds = %58
  br label %88

66:                                               ; preds = %58
  br label %67

67:                                               ; preds = %66, %53
  %68 = load ptr, ptr %14, align 8, !tbaa !12
  %69 = getelementptr inbounds nuw %struct.PBEPARAM_st, ptr %68, i32 0, i32 0
  %70 = load ptr, ptr %69, align 8, !tbaa !26
  %71 = load ptr, ptr %16, align 8, !tbaa !18
  %72 = load i32, ptr %12, align 4, !tbaa !16
  call void @ASN1_STRING_set0(ptr noundef %70, ptr noundef %71, i32 noundef %72)
  store ptr null, ptr %16, align 8, !tbaa !18
  %73 = load ptr, ptr %14, align 8, !tbaa !12
  %74 = call ptr @PBEPARAM_it()
  %75 = call ptr @ASN1_item_pack(ptr noundef %73, ptr noundef %74, ptr noundef %15)
  %76 = icmp ne ptr %75, null
  br i1 %76, label %78, label %77

77:                                               ; preds = %67
  call void @ERR_new()
  call void @ERR_set_debug(ptr noundef @.str.1, i32 noundef 65, ptr noundef @__func__.PKCS5_pbe_set0_algor_ex)
  call void (i32, i32, ptr, ...) @ERR_set_error(i32 noundef 13, i32 noundef 524301, ptr noundef null)
  br label %88

78:                                               ; preds = %67
  %79 = load ptr, ptr %14, align 8, !tbaa !12
  call void @PBEPARAM_free(ptr noundef %79)
  store ptr null, ptr %14, align 8, !tbaa !12
  %80 = load ptr, ptr %8, align 8, !tbaa !14
  %81 = load i32, ptr %9, align 4, !tbaa !16
  %82 = call ptr @OBJ_nid2obj(i32 noundef %81)
  %83 = load ptr, ptr %15, align 8, !tbaa !22
  %84 = call i32 @X509_ALGOR_set0(ptr noundef %80, ptr noundef %82, i32 noundef 16, ptr noundef %83)
  %85 = icmp ne i32 %84, 0
  br i1 %85, label %86, label %87

86:                                               ; preds = %78
  store i32 1, ptr %7, align 4
  store i32 1, ptr %17, align 4
  br label %92

87:                                               ; preds = %78
  br label %88

88:                                               ; preds = %87, %77, %65, %49, %42, %34, %21
  %89 = load ptr, ptr %16, align 8, !tbaa !18
  call void @CRYPTO_free(ptr noundef %89, ptr noundef @.str.1, i32 noundef 76)
  %90 = load ptr, ptr %14, align 8, !tbaa !12
  call void @PBEPARAM_free(ptr noundef %90)
  %91 = load ptr, ptr %15, align 8, !tbaa !22
  call void @ASN1_STRING_free(ptr noundef %91)
  store i32 0, ptr %7, align 4
  store i32 1, ptr %17, align 4
  br label %92

92:                                               ; preds = %88, %86
  call void @llvm.lifetime.end.p0(i64 8, ptr %16) #4
  call void @llvm.lifetime.end.p0(i64 8, ptr %15) #4
  call void @llvm.lifetime.end.p0(i64 8, ptr %14) #4
  %93 = load i32, ptr %7, align 4
  ret i32 %93
}