; Function Attrs: nounwind uwtable
define range(i32 0, 2) i32 @PKCS5_pbe_set0_algor_ex(ptr noundef %0, i32 noundef %1, i32 noundef %2, ptr noundef readonly captures(address_is_null) %3, i32 noundef %4, ptr noundef %5) local_unnamed_addr #1 {
  %7 = alloca ptr, align 8
  call void @llvm.lifetime.start.p0(i64 8, ptr nonnull %7) #5
  store ptr null, ptr %7, align 8, !tbaa !3
  %8 = tail call ptr @ASN1_item_new(ptr noundef nonnull @PBEPARAM_it.local_it) #5
  %9 = icmp eq ptr %8, null
  br i1 %9, label %10, label %11

10:                                               ; preds = %6
  tail call void @ERR_new() #5
  tail call void @ERR_set_debug(ptr noundef nonnull @.str.1, i32 noundef 39, ptr noundef nonnull @__func__.PKCS5_pbe_set0_algor_ex) #5
  tail call void (i32, i32, ptr, ...) @ERR_set_error(i32 noundef 13, i32 noundef 524301, ptr noundef null) #5
  br label %37

11:                                               ; preds = %6
  %12 = icmp slt i32 %2, 1
  %spec.store.select = select i1 %12, i32 2048, i32 %2
  %13 = getelementptr inbounds nuw i8, ptr %8, i64 8
  %14 = load ptr, ptr %13, align 8, !tbaa !8
  %15 = zext nneg i32 %spec.store.select to i64
  %16 = tail call i32 @ASN1_INTEGER_set(ptr noundef %14, i64 noundef %15) #5
  %.not = icmp eq i32 %16, 0
  br i1 %.not, label %17, label %18

17:                                               ; preds = %11
  tail call void @ERR_new() #5
  tail call void @ERR_set_debug(ptr noundef nonnull @.str.1, i32 noundef 45, ptr noundef nonnull @__func__.PKCS5_pbe_set0_algor_ex) #5
  tail call void (i32, i32, ptr, ...) @ERR_set_error(i32 noundef 13, i32 noundef 524301, ptr noundef null) #5
  br label %37

18:                                               ; preds = %11
  %.not31 = icmp eq i32 %4, 0
  %spec.store.select1 = select i1 %.not31, i32 8, i32 %4
  %19 = icmp slt i32 %spec.store.select1, 0
  br i1 %19, label %37, label %20

20:                                               ; preds = %18
  %21 = zext nneg i32 %spec.store.select1 to i64
  %22 = tail call noalias ptr @CRYPTO_malloc(i64 noundef %21, ptr noundef nonnull @.str.1, i32 noundef 53) #5
  %23 = icmp eq ptr %22, null
  br i1 %23, label %37, label %24

24:                                               ; preds = %20
  %.not32 = icmp eq ptr %3, null
  br i1 %.not32, label %26, label %25

25:                                               ; preds = %24
  tail call void @llvm.memcpy.p0.p0.i64(ptr noundef nonnull align 1 dereferenceable(1) %22, ptr noundef nonnull align 1 dereferenceable(1) %3, i64 %21, i1 false)
  br label %29

26:                                               ; preds = %24
  %27 = tail call i32 @RAND_bytes_ex(ptr noundef %5, ptr noundef nonnull %22, i64 noundef %21, i32 noundef 0) #5
  %28 = icmp slt i32 %27, 1
  br i1 %28, label %37, label %29

29:                                               ; preds = %26, %25
  %30 = load ptr, ptr %8, align 8, !tbaa !10
  tail call void @ASN1_STRING_set0(ptr noundef %30, ptr noundef nonnull %22, i32 noundef %spec.store.select1) #5
  %31 = call ptr @ASN1_item_pack(ptr noundef nonnull %8, ptr noundef nonnull @PBEPARAM_it.local_it, ptr noundef nonnull %7) #5
  %.not33 = icmp eq ptr %31, null
  br i1 %.not33, label %32, label %33

32:                                               ; preds = %29
  call void @ERR_new() #5
  call void @ERR_set_debug(ptr noundef nonnull @.str.1, i32 noundef 65, ptr noundef nonnull @__func__.PKCS5_pbe_set0_algor_ex) #5
  call void (i32, i32, ptr, ...) @ERR_set_error(i32 noundef 13, i32 noundef 524301, ptr noundef null) #5
  br label %37

33:                                               ; preds = %29
  call void @ASN1_item_free(ptr noundef nonnull %8, ptr noundef nonnull @PBEPARAM_it.local_it) #5
  %34 = call ptr @OBJ_nid2obj(i32 noundef %1) #5
  %35 = load ptr, ptr %7, align 8, !tbaa !3
  %36 = call i32 @X509_ALGOR_set0(ptr noundef %0, ptr noundef %34, i32 noundef 16, ptr noundef %35) #5
  %.not34 = icmp eq i32 %36, 0
  br i1 %.not34, label %37, label %39

37:                                               ; preds = %33, %26, %20, %18, %32, %17, %10
  %.025 = phi ptr [ null, %10 ], [ %8, %18 ], [ %8, %20 ], [ null, %33 ], [ %8, %32 ], [ %8, %26 ], [ %8, %17 ]
  %.0 = phi ptr [ null, %10 ], [ null, %18 ], [ null, %20 ], [ null, %33 ], [ null, %32 ], [ %22, %26 ], [ null, %17 ]
  call void @CRYPTO_free(ptr noundef %.0, ptr noundef nonnull @.str.1, i32 noundef 76) #5
  call void @ASN1_item_free(ptr noundef %.025, ptr noundef nonnull @PBEPARAM_it.local_it) #5
  %38 = load ptr, ptr %7, align 8, !tbaa !3
  call void @ASN1_STRING_free(ptr noundef %38) #5
  br label %39

39:                                               ; preds = %33, %37
  %.026 = phi i32 [ 0, %37 ], [ 1, %33 ]
  call void @llvm.lifetime.end.p0(i64 8, ptr nonnull %7) #5
  ret i32 %.026
}